; Function Attrs: mustprogress nofree norecurse nosync nounwind memory(read, argmem: readwrite, inaccessiblemem: none) uwtable
define void @_ZN12MeshDocument10setCurrentEP11RasterModel(ptr noundef nonnull align 8 dereferenceable(192) %0, ptr nocapture noundef readonly %1) local_unnamed_addr #14 align 2 {
  %3 = getelementptr inbounds i8, ptr %1, i64 156
  %4 = load i32, ptr %3, align 4
  %5 = icmp slt i32 %4, 0
  br i1 %5, label %_ZN12MeshDocument16setCurrentRasterEi.exit, label %6

6:                                                ; preds = %2
  %7 = getelementptr inbounds i8, ptr %0, i64 104
  br label %8

8:                                                ; preds = %9, %6
  %.sroa.06.0.in.i.i = phi ptr [ %7, %6 ], [ %.sroa.06.0.i.i, %9 ]
  %.sroa.06.0.i.i = load ptr, ptr %.sroa.06.0.in.i.i, align 8
  %.not.i.i = icmp eq ptr %.sroa.06.0.i.i, %7
  br i1 %.not.i.i, label %_ZN12MeshDocument16setCurrentRasterEi.exit, label %9

9:                                                ; preds = %8
  %10 = getelementptr inbounds i8, ptr %.sroa.06.0.i.i, i64 172
  %11 = load i32, ptr %10, align 4
  %12 = icmp eq i32 %11, %4
  br i1 %12, label %.split.loop.exit9.i.i, label %8

.split.loop.exit9.i.i:                            ; preds = %9
  %13 = getelementptr inbounds i8, ptr %.sroa.06.0.i.i, i64 16
  br label %_ZN12MeshDocument16setCurrentRasterEi.exit

_ZN12MeshDocument16setCurrentRasterEi.exit:       ; preds = %8, %2, %.split.loop.exit9.i.i
  %.0.i.sink.i = phi ptr [ null, %2 ], [ %13, %.split.loop.exit9.i.i ], [ null, %8 ]
  %14 = getelementptr inbounds i8, ptr %0, i64 184
  store ptr %.0.i.sink.i, ptr %14, align 8
  ret void
}